; Function Attrs: mustprogress uwtable
define hidden noundef nonnull align 8 dereferenceable(145) ptr @_ZN7datalog20karr_relation_plugin3getERNS_13relation_baseE(ptr noundef nonnull readonly align 8 dereferenceable(28) %r) local_unnamed_addr #3 align 2 {
entry:
  %0 = tail call ptr @__dynamic_cast(ptr nonnull %r, ptr nonnull @_ZTIN7datalog13relation_baseE, ptr nonnull @_ZTIN7datalog13karr_relationE, i64 0) #16
  %1 = icmp eq ptr %0, null
  br i1 %1, label %dynamic_cast.bad_cast, label %dynamic_cast.end

dynamic_cast.bad_cast:                            ; preds = %entry
  tail call void @__cxa_bad_cast() #17
  unreachable

dynamic_cast.end:                                 ; preds = %entry
  ret ptr %0
}